target datalayout = "e-m:e-p270:32:32-p271:32:32-p272:64:64-i64:64-i128:128-f80:128-n8:16:32:64-S128"
target triple = "x86_64-pc-linux-gnu"

%"class.ncnn::ParamDict" = type { ptr, ptr }

; Function Attrs: mustprogress uwtable
define hidden void @_ZN4ncnn15convert_packingERKNS_3MatERS0_iRKNS_6OptionE(ptr noundef nonnull align 8 dereferenceable(72) %0, ptr noundef nonnull align 8 dereferenceable(72) %1, i32 noundef %2, ptr noundef nonnull align 8 dereferenceable(64) %3) #0 personality ptr @__gxx_personality_v0 {
  %5 = alloca ptr, align 8
  %6 = alloca ptr, align 8
  %7 = alloca i32, align 4
  %8 = alloca ptr, align 8
  %9 = alloca ptr, align 8
  %10 = alloca %"class.ncnn::ParamDict", align 8
  %11 = alloca ptr, align 8
  %12 = alloca i32, align 4
  store ptr %0, ptr %5, align 8, !tbaa !4
  store ptr %1, ptr %6, align 8, !tbaa !4
  store i32 %2, ptr %7, align 4, !tbaa !25
  store ptr %3, ptr %8, align 8, !tbaa !51
  call void @llvm.lifetime.start.p0(i64 8, ptr %9) #9
  %13 = call noundef ptr @_ZN4ncnn12create_layerEi(i32 noundef 62)
  store ptr %13, ptr %9, align 8, !tbaa !39
  call void @llvm.lifetime.start.p0(i64 16, ptr %10) #9
  call void @_ZN4ncnn9ParamDictC1Ev(ptr noundef nonnull align 8 dereferenceable(16) %10)
  %14 = load i32, ptr %7, align 4, !tbaa !25
  invoke void @_ZN4ncnn9ParamDict3setEii(ptr noundef nonnull align 8 dereferenceable(16) %10, i32 noundef 0, i32 noundef %14)
          to label %15 unwind label %52

15:                                               ; preds = %4
  %16 = load ptr, ptr %9, align 8, !tbaa !39
  %17 = load ptr, ptr %16, align 8, !tbaa !30
  %18 = getelementptr inbounds ptr, ptr %17, i64 2
  %19 = load ptr, ptr %18, align 8
  %20 = invoke noundef i32 %19(ptr noundef nonnull align 8 dereferenceable(208) %16, ptr noundef nonnull align 8 dereferenceable(16) %10)
          to label %21 unwind label %52

21:                                               ; preds = %15
  %22 = load ptr, ptr %9, align 8, !tbaa !39
  %23 = load ptr, ptr %8, align 8, !tbaa !51
  %24 = load ptr, ptr %22, align 8, !tbaa !30
  %25 = getelementptr inbounds ptr, ptr %24, i64 4
  %26 = load ptr, ptr %25, align 8
  %27 = invoke noundef i32 %26(ptr noundef nonnull align 8 dereferenceable(208) %22, ptr noundef nonnull align 8 dereferenceable(64) %23)
          to label %28 unwind label %52

28:                                               ; preds = %21
  %29 = load ptr, ptr %9, align 8, !tbaa !39
  %30 = load ptr, ptr %5, align 8, !tbaa !4
  %31 = load ptr, ptr %6, align 8, !tbaa !4
  %32 = load ptr, ptr %8, align 8, !tbaa !51
  %33 = load ptr, ptr %29, align 8, !tbaa !30
  %34 = getelementptr inbounds ptr, ptr %33, i64 7
  %35 = load ptr, ptr %34, align 8
  %36 = invoke noundef i32 %35(ptr noundef nonnull align 8 dereferenceable(208) %29, ptr noundef nonnull align 8 dereferenceable(72) %30, ptr noundef nonnull align 8 dereferenceable(72) %31, ptr noundef nonnull align 8 dereferenceable(64) %32)
          to label %37 unwind label %52

37:                                               ; preds = %28
  %38 = load ptr, ptr %9, align 8, !tbaa !39
  %39 = load ptr, ptr %8, align 8, !tbaa !51
  %40 = load ptr, ptr %38, align 8, !tbaa !30
  %41 = getelementptr inbounds ptr, ptr %40, i64 5
  %42 = load ptr, ptr %41, align 8
  %43 = invoke noundef i32 %42(ptr noundef nonnull align 8 dereferenceable(208) %38, ptr noundef nonnull align 8 dereferenceable(64) %39)
          to label %44 unwind label %52

44:                                               ; preds = %37
  %45 = load ptr, ptr %9, align 8, !tbaa !39
  %46 = icmp eq ptr %45, null
  br i1 %46, label %51, label %47

47:                                               ; preds = %44
  %48 = load ptr, ptr %45, align 8, !tbaa !30
  %49 = getelementptr inbounds ptr, ptr %48, i64 1
  %50 = load ptr, ptr %49, align 8
  call void %50(ptr noundef nonnull align 8 dereferenceable(208) %45) #9
  br label %51

51:                                               ; preds = %47, %44
  call void @_ZN4ncnn9ParamDictD1Ev(ptr noundef nonnull align 8 dereferenceable(16) %10) #9
  call void @llvm.lifetime.end.p0(i64 16, ptr %10) #9
  call void @llvm.lifetime.end.p0(i64 8, ptr %9) #9
  ret void

52:                                               ; preds = %37, %28, %21, %15, %4
  %53 = landingpad { ptr, i32 }
          cleanup
  %54 = extractvalue { ptr, i32 } %53, 0
  store ptr %54, ptr %11, align 8
  %55 = extractvalue { ptr, i32 } %53, 1
  store i32 %55, ptr %12, align 4
  call void @_ZN4ncnn9ParamDictD1Ev(ptr noundef nonnull align 8 dereferenceable(16) %10) #9
  call void @llvm.lifetime.end.p0(i64 16, ptr %10) #9
  call void @llvm.lifetime.end.p0(i64 8, ptr %9) #9
  br label %56

56:                                               ; preds = %52
  %57 = load ptr, ptr %11, align 8
  %58 = load i32, ptr %12, align 4
  %59 = insertvalue { ptr, i32 } poison, ptr %57, 0
  %60 = insertvalue { ptr, i32 } %59, i32 %58, 1
  resume { ptr, i32 } %60
}